(lp0
(S'cppflags'
p1
ccopy_reg
_reconstructor
p2
(cino.utils
SpaceList
p3
c__builtin__
list
p4
(lp5
S'-mmcu=atmega328p'
p6
aS'-DF_CPU=16000000L'
p7
aS'-DARDUINO=105'
p8
aS'-I/usr/share/arduino/hardware/arduino/cores/arduino'
p9
aS'-ffunction-sections'
p10
aS'-fdata-sections'
p11
aS'-g'
p12
aS'-Os'
p13
aS'-w'
p14
aS'-I/usr/share/arduino/hardware/arduino/variants/standard'
p15
aS'-I/usr/share/arduino/hardware/arduino/cores/arduino'
p16
aS'-I/usr/share/arduino/hardware/arduino/cores/arduino/avr-libc'
p17
aS'-Ilib/ros_lib'
p18
aS'-Ilib/ros_lib/actionlib_msgs'
p19
aS'-Ilib/ros_lib/std_srvs'
p20
aS'-Ilib/ros_lib/shape_msgs'
p21
aS'-Ilib/ros_lib/visualization_msgs'
p22
aS'-Ilib/ros_lib/rospy_tutorials'
p23
aS'-Ilib/ros_lib/control_msgs'
p24
aS'-Ilib/ros_lib/smach_msgs'
p25
aS'-Ilib/ros_lib/laser_assembler'
p26
aS'-Ilib/ros_lib/sensor_msgs'
p27
aS'-Ilib/ros_lib/std_msgs'
p28
aS'-Ilib/ros_lib/roscpp_tutorials'
p29
aS'-Ilib/ros_lib/trajectory_msgs'
p30
aS'-Ilib/ros_lib/dynamic_reconfigure'
p31
aS'-Ilib/ros_lib/geometry_msgs'
p32
aS'-Ilib/ros_lib/motor_control'
p33
aS'-Ilib/ros_lib/polled_camera'
p34
aS'-Ilib/ros_lib/actionlib'
p35
aS'-Ilib/ros_lib/map_msgs'
p36
aS'-Ilib/ros_lib/tf2_msgs'
p37
aS'-Ilib/ros_lib/rosserial_msgs'
p38
aS'-Ilib/ros_lib/bond'
p39
aS'-Ilib/ros_lib/actionlib_tutorials'
p40
aS'-Ilib/ros_lib/diagnostic_msgs'
p41
aS'-Ilib/ros_lib/pcl_msgs'
p42
aS'-Ilib/ros_lib/control_toolbox'
p43
aS'-Ilib/ros_lib/gazebo_msgs'
p44
aS'-Ilib/ros_lib/nav_msgs'
p45
aS'-Ilib/ros_lib/turtle_actionlib'
p46
aS'-Ilib/ros_lib/rosgraph_msgs'
p47
aS'-Ilib/ros_lib/topic_tools'
p48
aS'-Ilib/ros_lib/tests'
p49
aS'-Ilib/ros_lib/stereo_msgs'
p50
aS'-Ilib/ros_lib/theora_image_transport'
p51
aS'-Ilib/ros_lib/rosserial_arduino'
p52
aS'-Ilib/ros_lib/controller_manager_msgs'
p53
aS'-Ilib/ros_lib/turtlesim'
p54
aS'-Ilib/ros_lib/roscpp'
p55
aS'-Ilib/ros_lib/nodelet'
p56
aS'-Ilib/ros_lib/ros'
p57
aS'-Ilib/ros_lib/tf'
p58
aS'-Ilib/ros_lib/tests/float64_test'
p59
aS'-Ilib/ros_lib/tests/time_test'
p60
aS'-Ilib/ros_lib/tests/array_test'
p61
atp62
Rp63
tp64
a(S'version.txt'
p65
S'/usr/share/arduino/lib/version.txt'
p66
tp67
a(S'used_libs'
p68
(lp69
S'/usr/share/arduino/hardware/arduino/cores/arduino'
p70
aS'lib/ros_lib'
p71
atp72
a(S'cc'
p73
S'/usr/share/arduino/hardware/tools/avr/bin/avr-gcc'
p74
tp75
a(S'make'
p76
S'/usr/share/arduino/hardware/tools/avr/bin/make'
p77
tp78
a(S'build_dir'
p79
S'.build/uno'
p80
tp81
a(S'arduino_core_dir'
p82
g70
tp83
a(S'boards.txt'
p84
(lp85
S'/usr/share/arduino/hardware/arduino/boards.txt'
p86
atp87
a(S'cxxflags'
p88
g2
(g3
g4
(lp89
S'-fno-exceptions'
p90
atp91
Rp92
tp93
a(S'arduino_variants_dir'
p94
S'/usr/share/arduino/hardware/arduino/variants'
p95
tp96
a(S'deps'
p97
g2
(g3
g4
(lp98
S'.build/uno/src/dependencies.d'
p99
aS'.build/uno/arduino/dependencies.d'
p100
aS'.build/uno/ros_lib/dependencies.d'
p101
atp102
Rp103
tp104
a(S'ar'
p105
S'/usr/share/arduino/hardware/tools/avr/bin/avr-ar'
p106
tp107
a(S'names'
p108
(dp109
S'cpp'
p110
S'%s.cpp'
p111
sS'obj'
p112
S'%s.o'
p113
sg97
S'%s.d'
p114
sS'lib'
p115
S'lib%s.a'
p116
stp117
a(S'cflags'
p118
g2
(g3
g4
(lp119
tp120
Rp121
tp122
a(S'ldflags'
p123
g2
(g3
g4
(lp124
g6
aS'-Wl,-Os'
p125
aS'-Wl,--gc-sections'
p126
atp127
Rp128
tp129
a(S'arduino_libraries_dir'
p130
S'/usr/share/arduino/libraries'
p131
tp132
a(S'arduino_lib_version'
p133
g2
(cino.environment
Version
p134
c__builtin__
tuple
p135
(I1
I0
I5
tp136
tp137
Rp138
tp139
a(S'objcopy'
p140
S'/usr/share/arduino/hardware/tools/avr/bin/avr-objcopy'
p141
tp142
a(S'board_models'
p143
cino.environment
BoardModels
p144
((lp145
(lp146
S'uno'
p147
a(dp148
S'build'
p149
(dp150
S'core'
p151
S'arduino'
p152
sS'mcu'
p153
S'atmega328p'
p154
sS'f_cpu'
p155
S'16000000L'
p156
sS'variant'
p157
S'standard'
p158
ssS'bootloader'
p159
(dp160
S'extended_fuses'
p161
S'0xfd'
p162
sS'high_fuses'
p163
S'0xde'
p164
sS'low_fuses'
p165
S'0xff'
p166
sS'lock_bits'
p167
S'0xcf'
p168
sS'file'
p169
S'optiboot_atmega328.hex'
p170
sS'path'
p171
S'optiboot'
p172
sS'unlock_bits'
p173
S'0xff'
p174
ssS'upload'
p175
(dp176
S'speed'
p177
S'115200'
p178
sS'maximum_size'
p179
S'32256'
p180
sS'protocol'
p181
S'arduino'
p182
ssS'name'
p183
S'Arduino Uno'
p184
sS'_coredir'
p185
S'/usr/share/arduino/hardware/arduino'
p186
saa(lp187
S'atmega328'
p188
a(dp189
S'build'
p190
(dp191
S'core'
p192
S'arduino'
p193
sS'mcu'
p194
S'atmega328p'
p195
sS'f_cpu'
p196
S'16000000L'
p197
sS'variant'
p198
S'standard'
p199
ssS'bootloader'
p200
(dp201
S'extended_fuses'
p202
S'0xfd'
p203
sS'high_fuses'
p204
S'0xDA'
p205
sS'low_fuses'
p206
S'0xFF'
p207
sS'lock_bits'
p208
S'0xcf'
p209
sS'file'
p210
S'ATmegaBOOT_168_atmega328.hex'
p211
sS'path'
p212
S'atmega'
p213
sS'unlock_bits'
p214
S'0xff'
p215
ssS'upload'
p216
(dp217
S'speed'
p218
S'57600'
p219
sS'maximum_size'
p220
S'30720'
p221
sS'protocol'
p222
S'arduino'
p223
ssS'name'
p224
S'Arduino Duemilanove w/ ATmega328'
p225
sg185
S'/usr/share/arduino/hardware/arduino'
p226
saa(lp227
S'diecimila'
p228
a(dp229
S'build'
p230
(dp231
S'core'
p232
S'arduino'
p233
sS'mcu'
p234
S'atmega168'
p235
sS'f_cpu'
p236
S'16000000L'
p237
sS'variant'
p238
S'standard'
p239
ssS'bootloader'
p240
(dp241
S'extended_fuses'
p242
S'0xf8'
p243
sS'high_fuses'
p244
S'0xdd'
p245
sS'low_fuses'
p246
S'0xff'
p247
sS'lock_bits'
p248
S'0xcf'
p249
sS'file'
p250
S'ATmegaBOOT_168_diecimila.hex'
p251
sS'path'
p252
S'atmega'
p253
sS'unlock_bits'
p254
S'0xff'
p255
ssS'upload'
p256
(dp257
S'speed'
p258
S'19200'
p259
sS'maximum_size'
p260
S'14336'
p261
sS'protocol'
p262
S'arduino'
p263
ssS'name'
p264
S'Arduino Diecimila or Duemilanove w/ ATmega168'
p265
sg185
S'/usr/share/arduino/hardware/arduino'
p266
saa(lp267
S'nano328'
p268
a(dp269
S'build'
p270
(dp271
S'core'
p272
S'arduino'
p273
sS'mcu'
p274
S'atmega328p'
p275
sS'f_cpu'
p276
S'16000000L'
p277
sS'variant'
p278
S'eightanaloginputs'
p279
ssS'bootloader'
p280
(dp281
S'extended_fuses'
p282
S'0xfd'
p283
sS'high_fuses'
p284
S'0xDA'
p285
sS'low_fuses'
p286
S'0xFF'
p287
sS'lock_bits'
p288
S'0xcf'
p289
sS'file'
p290
S'ATmegaBOOT_168_atmega328.hex'
p291
sS'path'
p292
S'atmega'
p293
sS'unlock_bits'
p294
S'0xff'
p295
ssS'upload'
p296
(dp297
S'speed'
p298
S'57600'
p299
sS'maximum_size'
p300
S'30720'
p301
sS'protocol'
p302
S'arduino'
p303
ssS'name'
p304
S'Arduino Nano w/ ATmega328'
p305
sg185
S'/usr/share/arduino/hardware/arduino'
p306
saa(lp307
S'nano'
p308
a(dp309
S'build'
p310
(dp311
S'core'
p312
S'arduino'
p313
sS'mcu'
p314
S'atmega168'
p315
sS'f_cpu'
p316
S'16000000L'
p317
sS'variant'
p318
S'eightanaloginputs'
p319
ssS'bootloader'
p320
(dp321
S'extended_fuses'
p322
S'0xf8'
p323
sS'high_fuses'
p324
S'0xdd'
p325
sS'low_fuses'
p326
S'0xff'
p327
sS'lock_bits'
p328
S'0xcf'
p329
sS'file'
p330
S'ATmegaBOOT_168_diecimila.hex'
p331
sS'path'
p332
S'atmega'
p333
sS'unlock_bits'
p334
S'0xff'
p335
ssS'upload'
p336
(dp337
S'speed'
p338
S'19200'
p339
sS'maximum_size'
p340
S'14336'
p341
sS'protocol'
p342
S'arduino'
p343
ssS'name'
p344
S'Arduino Nano w/ ATmega168'
p345
sg185
S'/usr/share/arduino/hardware/arduino'
p346
saa(lp347
S'mega2560'
p348
a(dp349
S'build'
p350
(dp351
S'core'
p352
S'arduino'
p353
sS'mcu'
p354
S'atmega2560'
p355
sS'f_cpu'
p356
S'16000000L'
p357
sS'variant'
p358
S'mega'
p359
ssS'bootloader'
p360
(dp361
S'extended_fuses'
p362
S'0xFD'
p363
sS'high_fuses'
p364
S'0xD8'
p365
sS'low_fuses'
p366
S'0xFF'
p367
sS'lock_bits'
p368
S'0xcf'
p369
sS'file'
p370
S'stk500boot_v2_mega2560.hex'
p371
sS'path'
p372
S'stk500v2'
p373
sS'unlock_bits'
p374
S'0xff'
p375
ssS'upload'
p376
(dp377
S'speed'
p378
S'115200'
p379
sS'maximum_size'
p380
S'258048'
p381
sS'protocol'
p382
S'wiring'
p383
ssS'name'
p384
S'Arduino Mega 2560 or Mega ADK'
p385
sg185
S'/usr/share/arduino/hardware/arduino'
p386
saa(lp387
S'mega'
p388
a(dp389
S'build'
p390
(dp391
S'core'
p392
S'arduino'
p393
sS'mcu'
p394
S'atmega1280'
p395
sS'f_cpu'
p396
S'16000000L'
p397
sS'variant'
p398
S'mega'
p399
ssS'bootloader'
p400
(dp401
S'extended_fuses'
p402
S'0xF5'
p403
sS'high_fuses'
p404
S'0xDA'
p405
sS'low_fuses'
p406
S'0xFF'
p407
sS'lock_bits'
p408
S'0xcf'
p409
sS'file'
p410
S'ATmegaBOOT_168_atmega1280.hex'
p411
sS'path'
p412
S'atmega'
p413
sS'unlock_bits'
p414
S'0xff'
p415
ssS'upload'
p416
(dp417
S'speed'
p418
S'57600'
p419
sS'maximum_size'
p420
S'126976'
p421
sS'protocol'
p422
S'arduino'
p423
ssS'name'
p424
S'Arduino Mega (ATmega1280)'
p425
sg185
S'/usr/share/arduino/hardware/arduino'
p426
saa(lp427
S'leonardo'
p428
a(dp429
S'build'
p430
(dp431
S'core'
p432
S'arduino'
p433
sS'f_cpu'
p434
S'16000000L'
p435
sS'vid'
p436
S'0x2341'
p437
sS'pid'
p438
S'0x8036'
p439
sS'variant'
p440
S'leonardo'
p441
sS'mcu'
p442
S'atmega32u4'
p443
ssS'bootloader'
p444
(dp445
S'extended_fuses'
p446
S'0xcb'
p447
sS'high_fuses'
p448
S'0xd8'
p449
sS'low_fuses'
p450
S'0xff'
p451
sS'lock_bits'
p452
S'0xef'
p453
sS'file'
p454
S'Caterina-Leonardo.hex'
p455
sS'path'
p456
S'caterina'
p457
sS'unlock_bits'
p458
S'0xff'
p459
ssS'upload'
p460
(dp461
S'speed'
p462
S'57600'
p463
sS'maximum_size'
p464
S'28672'
p465
sS'protocol'
p466
S'avr109'
p467
sS'disable_flushing'
p468
S'true'
p469
ssS'name'
p470
S'Arduino Leonardo'
p471
sg185
S'/usr/share/arduino/hardware/arduino'
p472
saa(lp473
S'esplora'
p474
a(dp475
S'build'
p476
(dp477
S'core'
p478
S'arduino'
p479
sS'f_cpu'
p480
S'16000000L'
p481
sS'vid'
p482
S'0x2341'
p483
sS'pid'
p484
S'0x803C'
p485
sS'variant'
p486
S'leonardo'
p487
sS'mcu'
p488
S'atmega32u4'
p489
ssS'bootloader'
p490
(dp491
S'extended_fuses'
p492
S'0xcb'
p493
sS'high_fuses'
p494
S'0xd8'
p495
sS'low_fuses'
p496
S'0xff'
p497
sS'lock_bits'
p498
S'0xef'
p499
sS'file'
p500
S'Caterina-Esplora.hex'
p501
sS'path'
p502
S'caterina'
p503
sS'unlock_bits'
p504
S'0xff'
p505
ssS'upload'
p506
(dp507
S'speed'
p508
S'57600'
p509
sS'maximum_size'
p510
S'28672'
p511
sS'protocol'
p512
S'avr109'
p513
sS'disable_flushing'
p514
S'true'
p515
ssS'name'
p516
S'Arduino Esplora'
p517
sg185
S'/usr/share/arduino/hardware/arduino'
p518
saa(lp519
S'micro'
p520
a(dp521
S'build'
p522
(dp523
S'core'
p524
S'arduino'
p525
sS'f_cpu'
p526
S'16000000L'
p527
sS'vid'
p528
S'0x2341'
p529
sS'pid'
p530
S'0x8037'
p531
sS'variant'
p532
S'micro'
p533
sS'mcu'
p534
S'atmega32u4'
p535
ssS'bootloader'
p536
(dp537
S'extended_fuses'
p538
S'0xcb'
p539
sS'high_fuses'
p540
S'0xd8'
p541
sS'low_fuses'
p542
S'0xff'
p543
sS'lock_bits'
p544
S'0xef'
p545
sS'file'
p546
S'Caterina-Micro.hex'
p547
sS'path'
p548
S'caterina'
p549
sS'unlock_bits'
p550
S'0xff'
p551
ssS'upload'
p552
(dp553
S'speed'
p554
S'57600'
p555
sS'maximum_size'
p556
S'28672'
p557
sS'protocol'
p558
S'avr109'
p559
sS'disable_flushing'
p560
S'true'
p561
ssS'name'
p562
S'Arduino Micro'
p563
sg185
S'/usr/share/arduino/hardware/arduino'
p564
saa(lp565
S'mini328'
p566
a(dp567
S'build'
p568
(dp569
S'core'
p570
S'arduino'
p571
sS'mcu'
p572
S'atmega328p'
p573
sS'f_cpu'
p574
S'16000000L'
p575
sS'variant'
p576
S'eightanaloginputs'
p577
ssS'bootloader'
p578
(dp579
S'extended_fuses'
p580
S'0xfd'
p581
sS'high_fuses'
p582
S'0xd8'
p583
sS'low_fuses'
p584
S'0xff'
p585
sS'lock_bits'
p586
S'0xcf'
p587
sS'file'
p588
S'optiboot_atmega328-Mini.hex'
p589
sS'path'
p590
S'optiboot'
p591
sS'unlock_bits'
p592
S'0xff'
p593
ssS'upload'
p594
(dp595
S'speed'
p596
S'115200'
p597
sS'maximum_size'
p598
S'28672'
p599
sS'protocol'
p600
S'arduino'
p601
ssS'name'
p602
S'Arduino Mini w/ ATmega328'
p603
sg185
S'/usr/share/arduino/hardware/arduino'
p604
saa(lp605
S'mini'
p606
a(dp607
S'build'
p608
(dp609
S'core'
p610
S'arduino'
p611
sS'mcu'
p612
S'atmega168'
p613
sS'f_cpu'
p614
S'16000000L'
p615
sS'variant'
p616
S'eightanaloginputs'
p617
ssS'bootloader'
p618
(dp619
S'extended_fuses'
p620
S'0xf8'
p621
sS'high_fuses'
p622
S'0xdd'
p623
sS'low_fuses'
p624
S'0xff'
p625
sS'lock_bits'
p626
S'0xcf'
p627
sS'file'
p628
S'ATmegaBOOT_168_ng.hex'
p629
sS'path'
p630
S'atmega'
p631
sS'unlock_bits'
p632
S'0xff'
p633
ssS'upload'
p634
(dp635
S'speed'
p636
S'19200'
p637
sS'maximum_size'
p638
S'14336'
p639
sS'protocol'
p640
S'arduino'
p641
ssS'name'
p642
S'Arduino Mini w/ ATmega168'
p643
sg185
S'/usr/share/arduino/hardware/arduino'
p644
saa(lp645
S'ethernet'
p646
a(dp647
S'build'
p648
(dp649
S'f_cpu'
p650
S'16000000L'
p651
sS'mcu'
p652
S'atmega328p'
p653
sS'variant'
p654
S'standard'
p655
sS'core'
p656
S'arduino'
p657
ssS'bootloader'
p658
(dp659
S'extended_fuses'
p660
S'0xfd'
p661
sS'high_fuses'
p662
S'0xde'
p663
sS'low_fuses'
p664
S'0xff'
p665
sS'lock_bits'
p666
S'0xcf'
p667
sS'file'
p668
S'optiboot_atmega328.hex'
p669
sS'path'
p670
S'optiboot'
p671
sS'unlock_bits'
p672
S'0xff'
p673
ssS'upload'
p674
(dp675
S'speed'
p676
S'115200'
p677
sS'maximum_size'
p678
S'32256'
p679
sS'protocol'
p680
S'arduino'
p681
ssS'name'
p682
S'Arduino Ethernet'
p683
sg185
S'/usr/share/arduino/hardware/arduino'
p684
saa(lp685
S'fio'
p686
a(dp687
S'build'
p688
(dp689
S'core'
p690
S'arduino'
p691
sS'mcu'
p692
S'atmega328p'
p693
sS'f_cpu'
p694
S'8000000L'
p695
sS'variant'
p696
S'eightanaloginputs'
p697
ssS'bootloader'
p698
(dp699
S'extended_fuses'
p700
S'0xfd'
p701
sS'high_fuses'
p702
S'0xDA'
p703
sS'low_fuses'
p704
S'0xFF'
p705
sS'lock_bits'
p706
S'0xcf'
p707
sS'file'
p708
S'ATmegaBOOT_168_atmega328_pro_8MHz.hex'
p709
sS'path'
p710
S'arduino:atmega'
p711
sS'unlock_bits'
p712
S'0xff'
p713
ssS'upload'
p714
(dp715
S'speed'
p716
S'57600'
p717
sS'maximum_size'
p718
S'30720'
p719
sS'protocol'
p720
S'arduino'
p721
ssS'name'
p722
S'Arduino Fio'
p723
sg185
S'/usr/share/arduino/hardware/arduino'
p724
saa(lp725
S'bt328'
p726
a(dp727
S'build'
p728
(dp729
S'core'
p730
S'arduino'
p731
sS'mcu'
p732
S'atmega328p'
p733
sS'f_cpu'
p734
S'16000000L'
p735
sS'variant'
p736
S'eightanaloginputs'
p737
ssS'bootloader'
p738
(dp739
S'extended_fuses'
p740
S'0xfd'
p741
sS'high_fuses'
p742
S'0xd8'
p743
sS'low_fuses'
p744
S'0xff'
p745
sS'lock_bits'
p746
S'0xcf'
p747
sS'file'
p748
S'ATmegaBOOT_168_atmega328_bt.hex'
p749
sS'path'
p750
S'bt'
p751
sS'unlock_bits'
p752
S'0xff'
p753
ssS'upload'
p754
(dp755
S'speed'
p756
S'19200'
p757
sS'maximum_size'
p758
S'28672'
p759
sS'protocol'
p760
S'arduino'
p761
sS'disable_flushing'
p762
S'true'
p763
ssS'name'
p764
S'Arduino BT w/ ATmega328'
p765
sg185
S'/usr/share/arduino/hardware/arduino'
p766
saa(lp767
S'bt'
p768
a(dp769
S'build'
p770
(dp771
S'core'
p772
S'arduino'
p773
sS'mcu'
p774
S'atmega168'
p775
sS'f_cpu'
p776
S'16000000L'
p777
sS'variant'
p778
S'eightanaloginputs'
p779
ssS'bootloader'
p780
(dp781
S'extended_fuses'
p782
S'0xf8'
p783
sS'high_fuses'
p784
S'0xdd'
p785
sS'low_fuses'
p786
S'0xff'
p787
sS'lock_bits'
p788
S'0xcf'
p789
sS'file'
p790
S'ATmegaBOOT_168.hex'
p791
sS'path'
p792
S'bt'
p793
sS'unlock_bits'
p794
S'0xff'
p795
ssS'upload'
p796
(dp797
S'speed'
p798
S'19200'
p799
sS'maximum_size'
p800
S'14336'
p801
sS'protocol'
p802
S'arduino'
p803
sS'disable_flushing'
p804
S'true'
p805
ssS'name'
p806
S'Arduino BT w/ ATmega168'
p807
sg185
S'/usr/share/arduino/hardware/arduino'
p808
saa(lp809
S'LilyPadUSB'
p810
a(dp811
S'build'
p812
(dp813
S'core'
p814
S'arduino'
p815
sS'f_cpu'
p816
S'8000000L'
p817
sS'vid'
p818
S'0x1B4F'
p819
sS'pid'
p820
S'0x9208'
p821
sS'variant'
p822
S'leonardo'
p823
sS'mcu'
p824
S'atmega32u4'
p825
ssS'bootloader'
p826
(dp827
S'extended_fuses'
p828
S'0xce'
p829
sS'high_fuses'
p830
S'0xd8'
p831
sS'low_fuses'
p832
S'0xff'
p833
sS'lock_bits'
p834
S'0xef'
p835
sS'file'
p836
S'Caterina-LilyPadUSB.hex'
p837
sS'path'
p838
S'caterina-LilyPadUSB'
p839
sS'unlock_bits'
p840
S'0xff'
p841
ssS'upload'
p842
(dp843
S'speed'
p844
S'57600'
p845
sS'maximum_size'
p846
S'28672'
p847
sS'protocol'
p848
S'avr109'
p849
sS'disable_flushing'
p850
S'true'
p851
ssS'name'
p852
S'LilyPad Arduino USB'
p853
sg185
S'/usr/share/arduino/hardware/arduino'
p854
saa(lp855
S'lilypad328'
p856
a(dp857
S'build'
p858
(dp859
S'core'
p860
S'arduino'
p861
sS'mcu'
p862
S'atmega328p'
p863
sS'f_cpu'
p864
S'8000000L'
p865
sS'variant'
p866
S'standard'
p867
ssS'bootloader'
p868
(dp869
S'extended_fuses'
p870
S'0xfd'
p871
sS'high_fuses'
p872
S'0xDA'
p873
sS'low_fuses'
p874
S'0xFF'
p875
sS'lock_bits'
p876
S'0xcf'
p877
sS'file'
p878
S'ATmegaBOOT_168_atmega328_pro_8MHz.hex'
p879
sS'path'
p880
S'atmega'
p881
sS'unlock_bits'
p882
S'0xff'
p883
ssS'upload'
p884
(dp885
S'speed'
p886
S'57600'
p887
sS'maximum_size'
p888
S'30720'
p889
sS'protocol'
p890
S'arduino'
p891
ssS'name'
p892
S'LilyPad Arduino w/ ATmega328'
p893
sg185
S'/usr/share/arduino/hardware/arduino'
p894
saa(lp895
S'lilypad'
p896
a(dp897
S'build'
p898
(dp899
S'core'
p900
S'arduino'
p901
sS'mcu'
p902
S'atmega168'
p903
sS'f_cpu'
p904
S'8000000L'
p905
sS'variant'
p906
S'standard'
p907
ssS'bootloader'
p908
(dp909
S'extended_fuses'
p910
S'0xf8'
p911
sS'high_fuses'
p912
S'0xdd'
p913
sS'low_fuses'
p914
S'0xe2'
p915
sS'lock_bits'
p916
S'0xcf'
p917
sS'file'
p918
S'LilyPadBOOT_168.hex'
p919
sS'path'
p920
S'lilypad'
p921
sS'unlock_bits'
p922
S'0xff'
p923
ssS'upload'
p924
(dp925
S'speed'
p926
S'19200'
p927
sS'maximum_size'
p928
S'14336'
p929
sS'protocol'
p930
S'arduino'
p931
ssS'name'
p932
S'LilyPad Arduino w/ ATmega168'
p933
sg185
S'/usr/share/arduino/hardware/arduino'
p934
saa(lp935
S'pro5v328'
p936
a(dp937
S'build'
p938
(dp939
S'core'
p940
S'arduino'
p941
sS'mcu'
p942
S'atmega328p'
p943
sS'f_cpu'
p944
S'16000000L'
p945
sS'variant'
p946
S'standard'
p947
ssS'bootloader'
p948
(dp949
S'extended_fuses'
p950
S'0xfd'
p951
sS'high_fuses'
p952
S'0xDA'
p953
sS'low_fuses'
p954
S'0xFF'
p955
sS'lock_bits'
p956
S'0xcf'
p957
sS'file'
p958
S'ATmegaBOOT_168_atmega328.hex'
p959
sS'path'
p960
S'atmega'
p961
sS'unlock_bits'
p962
S'0xff'
p963
ssS'upload'
p964
(dp965
S'speed'
p966
S'57600'
p967
sS'maximum_size'
p968
S'30720'
p969
sS'protocol'
p970
S'arduino'
p971
ssS'name'
p972
S'Arduino Pro or Pro Mini (5V, 16 MHz) w/ ATmega328'
p973
sg185
S'/usr/share/arduino/hardware/arduino'
p974
saa(lp975
S'pro5v'
p976
a(dp977
S'build'
p978
(dp979
S'core'
p980
S'arduino'
p981
sS'mcu'
p982
S'atmega168'
p983
sS'f_cpu'
p984
S'16000000L'
p985
sS'variant'
p986
S'standard'
p987
ssS'bootloader'
p988
(dp989
S'extended_fuses'
p990
S'0xf8'
p991
sS'high_fuses'
p992
S'0xdd'
p993
sS'low_fuses'
p994
S'0xff'
p995
sS'lock_bits'
p996
S'0xcf'
p997
sS'file'
p998
S'ATmegaBOOT_168_diecimila.hex'
p999
sS'path'
p1000
S'atmega'
p1001
sS'unlock_bits'
p1002
S'0xff'
p1003
ssS'upload'
p1004
(dp1005
S'speed'
p1006
S'19200'
p1007
sS'maximum_size'
p1008
S'14336'
p1009
sS'protocol'
p1010
S'arduino'
p1011
ssS'name'
p1012
S'Arduino Pro or Pro Mini (5V, 16 MHz) w/ ATmega168'
p1013
sg185
S'/usr/share/arduino/hardware/arduino'
p1014
saa(lp1015
S'pro328'
p1016
a(dp1017
S'build'
p1018
(dp1019
S'core'
p1020
S'arduino'
p1021
sS'mcu'
p1022
S'atmega328p'
p1023
sS'f_cpu'
p1024
S'8000000L'
p1025
sS'variant'
p1026
S'standard'
p1027
ssS'bootloader'
p1028
(dp1029
S'extended_fuses'
p1030
S'0xfd'
p1031
sS'high_fuses'
p1032
S'0xDA'
p1033
sS'low_fuses'
p1034
S'0xFF'
p1035
sS'lock_bits'
p1036
S'0xcf'
p1037
sS'file'
p1038
S'ATmegaBOOT_168_atmega328_pro_8MHz.hex'
p1039
sS'path'
p1040
S'atmega'
p1041
sS'unlock_bits'
p1042
S'0xff'
p1043
ssS'upload'
p1044
(dp1045
S'speed'
p1046
S'57600'
p1047
sS'maximum_size'
p1048
S'30720'
p1049
sS'protocol'
p1050
S'arduino'
p1051
ssS'name'
p1052
S'Arduino Pro or Pro Mini (3.3V, 8 MHz) w/ ATmega328'
p1053
sg185
S'/usr/share/arduino/hardware/arduino'
p1054
saa(lp1055
S'pro'
p1056
a(dp1057
S'build'
p1058
(dp1059
S'core'
p1060
S'arduino'
p1061
sS'mcu'
p1062
S'atmega168'
p1063
sS'f_cpu'
p1064
S'8000000L'
p1065
sS'variant'
p1066
S'standard'
p1067
ssS'bootloader'
p1068
(dp1069
S'extended_fuses'
p1070
S'0xf8'
p1071
sS'high_fuses'
p1072
S'0xdd'
p1073
sS'low_fuses'
p1074
S'0xc6'
p1075
sS'lock_bits'
p1076
S'0xcf'
p1077
sS'file'
p1078
S'ATmegaBOOT_168_pro_8MHz.hex'
p1079
sS'path'
p1080
S'atmega'
p1081
sS'unlock_bits'
p1082
S'0xff'
p1083
ssS'upload'
p1084
(dp1085
S'speed'
p1086
S'19200'
p1087
sS'maximum_size'
p1088
S'14336'
p1089
sS'protocol'
p1090
S'arduino'
p1091
ssS'name'
p1092
S'Arduino Pro or Pro Mini (3.3V, 8 MHz) w/ ATmega168'
p1093
sg185
S'/usr/share/arduino/hardware/arduino'
p1094
saa(lp1095
S'atmega168'
p1096
a(dp1097
S'build'
p1098
(dp1099
S'core'
p1100
S'arduino'
p1101
sS'mcu'
p1102
S'atmega168'
p1103
sS'f_cpu'
p1104
S'16000000L'
p1105
sS'variant'
p1106
S'standard'
p1107
ssS'bootloader'
p1108
(dp1109
S'extended_fuses'
p1110
S'0xf8'
p1111
sS'high_fuses'
p1112
S'0xdd'
p1113
sS'low_fuses'
p1114
S'0xff'
p1115
sS'lock_bits'
p1116
S'0xcf'
p1117
sS'file'
p1118
S'ATmegaBOOT_168_ng.hex'
p1119
sS'path'
p1120
S'atmega'
p1121
sS'unlock_bits'
p1122
S'0xff'
p1123
ssS'upload'
p1124
(dp1125
S'speed'
p1126
S'19200'
p1127
sS'maximum_size'
p1128
S'14336'
p1129
sS'protocol'
p1130
S'arduino'
p1131
ssS'name'
p1132
S'Arduino NG or older w/ ATmega168'
p1133
sg185
S'/usr/share/arduino/hardware/arduino'
p1134
saa(lp1135
S'atmega8'
p1136
a(dp1137
S'build'
p1138
(dp1139
S'core'
p1140
S'arduino'
p1141
sS'mcu'
p1142
S'atmega8'
p1143
sS'f_cpu'
p1144
S'16000000L'
p1145
sS'variant'
p1146
S'standard'
p1147
ssS'bootloader'
p1148
(dp1149
S'high_fuses'
p1150
S'0xca'
p1151
sS'low_fuses'
p1152
S'0xdf'
p1153
sS'lock_bits'
p1154
S'0xcf'
p1155
sS'file'
p1156
S'ATmegaBOOT-prod-firmware-2009-11-07.hex'
p1157
sS'path'
p1158
S'atmega8'
p1159
sS'unlock_bits'
p1160
S'0xff'
p1161
ssS'upload'
p1162
(dp1163
S'speed'
p1164
S'19200'
p1165
sS'maximum_size'
p1166
S'7168'
p1167
sS'protocol'
p1168
S'arduino'
p1169
ssS'name'
p1170
S'Arduino NG or older w/ ATmega8'
p1171
sg185
S'/usr/share/arduino/hardware/arduino'
p1172
saa(lp1173
S'robotControl'
p1174
a(dp1175
S'build'
p1176
(dp1177
S'core'
p1178
S'robot'
p1179
sS'f_cpu'
p1180
S'16000000L'
p1181
sS'vid'
p1182
S'0x2341'
p1183
sS'pid'
p1184
S'0x8038'
p1185
sS'variant'
p1186
S'robot_control'
p1187
sS'mcu'
p1188
S'atmega32u4'
p1189
ssS'bootloader'
p1190
(dp1191
S'extended_fuses'
p1192
S'0xcb'
p1193
sS'high_fuses'
p1194
S'0xd8'
p1195
sS'low_fuses'
p1196
S'0xff'
p1197
sS'lock_bits'
p1198
S'0xef'
p1199
sS'file'
p1200
S'Caterina-Robot-Control.hex'
p1201
sS'path'
p1202
S'caterina-Arduino_Robot'
p1203
sS'unlock_bits'
p1204
S'0xff'
p1205
ssS'upload'
p1206
(dp1207
S'speed'
p1208
S'57600'
p1209
sS'maximum_size'
p1210
S'28672'
p1211
sS'protocol'
p1212
S'avr109'
p1213
sS'disable_flushing'
p1214
S'true'
p1215
ssS'name'
p1216
S'Arduino Robot Control'
p1217
sg185
S'/usr/share/arduino/hardware/arduino'
p1218
saa(lp1219
S'robotMotor'
p1220
a(dp1221
S'build'
p1222
(dp1223
S'core'
p1224
S'robot'
p1225
sS'f_cpu'
p1226
S'16000000L'
p1227
sS'vid'
p1228
S'0x2341'
p1229
sS'pid'
p1230
S'0x8039'
p1231
sS'variant'
p1232
S'robot_motor'
p1233
sS'mcu'
p1234
S'atmega32u4'
p1235
ssS'bootloader'
p1236
(dp1237
S'extended_fuses'
p1238
S'0xcb'
p1239
sS'high_fuses'
p1240
S'0xd8'
p1241
sS'low_fuses'
p1242
S'0xff'
p1243
sS'lock_bits'
p1244
S'0xef'
p1245
sS'file'
p1246
S'Caterina-Robot-Motor.hex'
p1247
sS'path'
p1248
S'caterina-Arduino_Robot'
p1249
sS'unlock_bits'
p1250
S'0xff'
p1251
ssS'upload'
p1252
(dp1253
S'speed'
p1254
S'57600'
p1255
sS'maximum_size'
p1256
S'28672'
p1257
sS'protocol'
p1258
S'avr109'
p1259
sS'disable_flushing'
p1260
S'true'
p1261
ssS'name'
p1262
S'Arduino Robot Motor'
p1263
sg185
S'/usr/share/arduino/hardware/arduino'
p1264
saatp1265
Rp1266
(dp1267
S'default'
p1268
S'uno'
p1269
sbtp1270
a(S'cxx'
p1271
S'/usr/share/arduino/hardware/tools/avr/bin/avr-g++'
p1272
tp1273
a.